target datalayout = "e-m:e-p270:32:32-p271:32:32-p272:64:64-i64:64-i128:128-f80:128-n8:16:32:64-S128"
target triple = "x86_64-pc-linux-gnu"

%struct._zend_llist = type { ptr, ptr, i64, i64, ptr, i8, ptr }
%struct._zend_compiler_globals = type { %struct._zend_stack, ptr, ptr, i32, ptr, ptr, ptr, ptr, i8, i8, i8, i8, i8, %struct._zend_llist, ptr, i8, i8, i8, i8, ptr, i32, i32, %struct._zend_oparray_context, %struct._zend_file_context, ptr, %struct._zend_array, ptr, i64, i8, i8, i8, ptr, ptr, %struct._zend_stack, ptr, i32, ptr, ptr, i64, i64, ptr, ptr, ptr, ptr, i32, ptr, i32, %struct._zend_stack }
%struct._zend_oparray_context = type { ptr, ptr, i32, i32, i32, i32, i32, i32, i32, ptr, ptr, ptr, i32, i8 }
%struct._zend_file_context = type { %struct._zend_declarables, ptr, i8, i8, ptr, ptr, ptr, %struct._zend_array }
%struct._zend_declarables = type { i64 }
%struct._zend_array = type { %struct._zend_refcounted_h, %union.anon.6, i32, %union.anon.8, i32, i32, i32, i32, i64, ptr }
%struct._zend_refcounted_h = type { i32, %union.anon.5 }
%union.anon.5 = type { i32 }
%union.anon.6 = type { i32 }
%union.anon.8 = type { ptr }
%struct._zend_stack = type { i32, i32, i32, ptr }
%struct._zend_op_array = type { i8, [3 x i8], i32, ptr, ptr, ptr, i32, i32, ptr, ptr, ptr, ptr, i32, ptr, i32, i32, i32, ptr, ptr, ptr, ptr, ptr, i32, i32, ptr, ptr, ptr, i32, i32, i32, i32, ptr, ptr, [6 x ptr] }

@compiler_globals = external global %struct._zend_compiler_globals, align 8

; Function Attrs: nounwind uwtable
define dso_local void @zend_destroy_static_vars(ptr noundef %0) #0 {
  %2 = alloca ptr, align 8
  %3 = alloca ptr, align 8
  %4 = alloca ptr, align 8
  store ptr %0, ptr %2, align 8, !tbaa !4
  %5 = load ptr, ptr %2, align 8, !tbaa !4
  %6 = getelementptr inbounds nuw %struct._zend_op_array, ptr %5, i32 0, i32 18
  %7 = load ptr, ptr %6, align 8, !tbaa !47
  %8 = icmp ne ptr %7, null
  br i1 %8, label %9, label %62

9:                                                ; preds = %1
  call void @llvm.lifetime.start.p0(i64 8, ptr %3) #14
  %10 = load ptr, ptr %2, align 8, !tbaa !4
  %11 = getelementptr inbounds nuw %struct._zend_op_array, ptr %10, i32 0, i32 18
  %12 = load ptr, ptr %11, align 8, !tbaa !47
  %13 = ptrtoint ptr %12 to i64
  %14 = and i64 %13, 1
  %15 = icmp ne i64 %14, 0
  br i1 %15, label %16, label %24

16:                                               ; preds = %9
  %17 = load ptr, ptr getelementptr inbounds nuw (%struct._zend_compiler_globals, ptr @compiler_globals, i32 0, i32 37), align 8, !tbaa !102
  %18 = load ptr, ptr %2, align 8, !tbaa !4
  %19 = getelementptr inbounds nuw %struct._zend_op_array, ptr %18, i32 0, i32 18
  %20 = load ptr, ptr %19, align 8, !tbaa !47
  %21 = ptrtoint ptr %20 to i64
  %22 = getelementptr inbounds i8, ptr %17, i64 %21
  %23 = load ptr, ptr %22, align 8, !tbaa !69
  br label %28

24:                                               ; preds = %9
  %25 = load ptr, ptr %2, align 8, !tbaa !4
  %26 = getelementptr inbounds nuw %struct._zend_op_array, ptr %25, i32 0, i32 18
  %27 = load ptr, ptr %26, align 8, !tbaa !47
  br label %28

28:                                               ; preds = %24, %16
  %29 = phi ptr [ %23, %16 ], [ %27, %24 ]
  store ptr %29, ptr %3, align 8, !tbaa !86
  %30 = load ptr, ptr %3, align 8, !tbaa !86
  %31 = icmp ne ptr %30, null
  br i1 %31, label %32, label %61

32:                                               ; preds = %28
  %33 = load ptr, ptr %3, align 8, !tbaa !86
  call void @zend_array_destroy(ptr noundef %33)
  br label %34

34:                                               ; preds = %32
  %35 = load ptr, ptr %2, align 8, !tbaa !4
  %36 = getelementptr inbounds nuw %struct._zend_op_array, ptr %35, i32 0, i32 18
  %37 = load ptr, ptr %36, align 8, !tbaa !47
  %38 = ptrtoint ptr %37 to i64
  %39 = and i64 %38, 1
  %40 = icmp ne i64 %39, 0
  br i1 %40, label %41, label %52

41:                                               ; preds = %34
  br label %42

42:                                               ; preds = %41
  call void @llvm.lifetime.start.p0(i64 8, ptr %4) #14
  %43 = load ptr, ptr getelementptr inbounds nuw (%struct._zend_compiler_globals, ptr @compiler_globals, i32 0, i32 37), align 8, !tbaa !102
  %44 = load ptr, ptr %2, align 8, !tbaa !4
  %45 = getelementptr inbounds nuw %struct._zend_op_array, ptr %44, i32 0, i32 18
  %46 = load ptr, ptr %45, align 8, !tbaa !47
  %47 = ptrtoint ptr %46 to i64
  %48 = getelementptr inbounds i8, ptr %43, i64 %47
  store ptr %48, ptr %4, align 8, !tbaa !69
  %49 = load ptr, ptr %4, align 8, !tbaa !69
  store ptr null, ptr %49, align 8, !tbaa !69
  call void @llvm.lifetime.end.p0(i64 8, ptr %4) #14
  br label %50

50:                                               ; preds = %42
  br label %51

51:                                               ; preds = %50
  br label %58

52:                                               ; preds = %34
  br label %53

53:                                               ; preds = %52
  %54 = load ptr, ptr %2, align 8, !tbaa !4
  %55 = getelementptr inbounds nuw %struct._zend_op_array, ptr %54, i32 0, i32 18
  store ptr null, ptr %55, align 8, !tbaa !47
  br label %56

56:                                               ; preds = %53
  br label %57

57:                                               ; preds = %56
  br label %58

58:                                               ; preds = %57, %51
  br label %59

59:                                               ; preds = %58
  br label %60

60:                                               ; preds = %59
  br label %61

61:                                               ; preds = %60, %28
  call void @llvm.lifetime.end.p0(i64 8, ptr %3) #14
  br label %62

62:                                               ; preds = %61, %1
  ret void
}