; Function Attrs: nounwind uwtable
define dso_local void @zend_destroy_static_vars(ptr noundef captures(none) %0) local_unnamed_addr #0 {
  %2 = getelementptr inbounds nuw i8, ptr %0, i64 112
  %3 = load ptr, ptr %2, align 8, !tbaa !161
  %.not = icmp eq ptr %3, null
  br i1 %.not, label %19, label %4

4:                                                ; preds = %1
  %5 = ptrtoint ptr %3 to i64
  %6 = and i64 %5, 1
  %.not11 = icmp eq i64 %6, 0
  br i1 %.not11, label %.thread, label %7

7:                                                ; preds = %4
  %8 = load ptr, ptr getelementptr inbounds nuw (i8, ptr @compiler_globals, i64 512), align 8, !tbaa !81
  %9 = getelementptr inbounds i8, ptr %8, i64 %5
  %10 = load ptr, ptr %9, align 8, !tbaa !96
  %.not12 = icmp eq ptr %10, null
  br i1 %.not12, label %19, label %.thread

.thread:                                          ; preds = %4, %7
  %11 = phi ptr [ %10, %7 ], [ %3, %4 ]
  tail call void @zend_array_destroy(ptr noundef nonnull %11) #14
  %12 = load ptr, ptr %2, align 8, !tbaa !161
  %13 = ptrtoint ptr %12 to i64
  %14 = and i64 %13, 1
  %.not13 = icmp eq i64 %14, 0
  br i1 %.not13, label %18, label %15

15:                                               ; preds = %.thread
  %16 = load ptr, ptr getelementptr inbounds nuw (i8, ptr @compiler_globals, i64 512), align 8, !tbaa !81
  %17 = getelementptr inbounds i8, ptr %16, i64 %13
  store ptr null, ptr %17, align 8, !tbaa !96
  br label %19

18:                                               ; preds = %.thread
  store ptr null, ptr %2, align 8, !tbaa !161
  br label %19

19:                                               ; preds = %7, %18, %15, %1
  ret void
}